; Function Attrs: mustprogress uwtable
define hidden void @_ZN19OpenColorIO_v2_5dev11Lut3DOpDataC2Em(ptr noundef nonnull align 8 dereferenceable(232) %0, i64 noundef %1) unnamed_addr #3 align 2 personality ptr @__gxx_personality_v0 {
  tail call void @_ZN19OpenColorIO_v2_5dev6OpDataC2Ev(ptr noundef nonnull align 8 dereferenceable(168) %0)
  store ptr getelementptr inbounds nuw inrange(-16, 88) (i8, ptr @_ZTVN19OpenColorIO_v2_5dev11Lut3DOpDataE, i64 16), ptr %0, align 8, !tbaa !50
  %3 = getelementptr inbounds nuw i8, ptr %0, i64 168
  store i32 254, ptr %3, align 8, !tbaa !71
  %4 = getelementptr inbounds nuw i8, ptr %0, i64 176
  %5 = getelementptr inbounds nuw i8, ptr %0, i64 184
  tail call void @llvm.memset.p0.i64(ptr noundef nonnull align 8 dereferenceable(40) %5, i8 0, i64 40, i1 false)
  store ptr getelementptr inbounds nuw inrange(-16, 72) (i8, ptr @_ZTVN19OpenColorIO_v2_5dev11Lut3DOpData10Lut3DArrayE, i64 16), ptr %4, align 8, !tbaa !50
  invoke void @_ZN19OpenColorIO_v2_5dev11Lut3DOpData10Lut3DArray6resizeEmm(ptr noundef nonnull align 8 dereferenceable(48) %4, i64 noundef %1, i64 noundef 3)
          to label %6 unwind label %34

6:                                                ; preds = %2
  %7 = load ptr, ptr %4, align 8, !tbaa !50
  %8 = getelementptr inbounds nuw i8, ptr %7, i64 32
  %9 = load ptr, ptr %8, align 8
  %10 = invoke noundef i64 %9(ptr noundef nonnull align 8 dereferenceable(48) %4)
          to label %.noexc.i unwind label %34

.noexc.i:                                         ; preds = %6
  %11 = sitofp i64 %10 to float
  %12 = fadd float %11, -1.000000e+00
  %13 = fdiv float 1.000000e+00, %12
  %14 = mul nsw i64 %10, %10
  %15 = mul nsw i64 %14, %10
  %16 = icmp sgt i64 %15, 0
  br i1 %16, label %.lr.ph.i.i, label %_ZN19OpenColorIO_v2_5dev11Lut3DOpData10Lut3DArrayC2Em.exit

.lr.ph.i.i:                                       ; preds = %.noexc.i
  %17 = getelementptr inbounds nuw i8, ptr %0, i64 200
  %18 = load ptr, ptr %17, align 8, !tbaa !81
  %invariant.gep.i.i = getelementptr inbounds nuw i8, ptr %18, i64 4
  %invariant.gep29.i.i = getelementptr inbounds nuw i8, ptr %18, i64 8
  br label %19

19:                                               ; preds = %19, %.lr.ph.i.i
  %.028.i.i = phi i64 [ 0, %.lr.ph.i.i ], [ %33, %19 ]
  %20 = sdiv i64 %.028.i.i, %10
  %21 = sdiv i64 %20, %10
  %22 = srem i64 %21, %10
  %23 = sitofp i64 %22 to float
  %24 = fmul float %13, %23
  %25 = mul nuw nsw i64 %.028.i.i, 3
  %26 = getelementptr inbounds nuw float, ptr %18, i64 %25
  store float %24, ptr %26, align 4, !tbaa !92
  %27 = srem i64 %20, %10
  %28 = sitofp i64 %27 to float
  %29 = fmul float %13, %28
  %gep.i.i = getelementptr inbounds nuw float, ptr %invariant.gep.i.i, i64 %25
  store float %29, ptr %gep.i.i, align 4, !tbaa !92
  %30 = srem i64 %.028.i.i, %10
  %31 = uitofp nneg i64 %30 to float
  %32 = fmul float %13, %31
  %gep30.i.i = getelementptr inbounds nuw float, ptr %invariant.gep29.i.i, i64 %25
  store float %32, ptr %gep30.i.i, align 4, !tbaa !92
  %33 = add nuw nsw i64 %.028.i.i, 1
  %exitcond.not.i.i = icmp eq i64 %33, %15
  br i1 %exitcond.not.i.i, label %_ZN19OpenColorIO_v2_5dev11Lut3DOpData10Lut3DArrayC2Em.exit, label %19, !llvm.loop !94

34:                                               ; preds = %6, %2
  %35 = landingpad { ptr, i32 }
          cleanup
  store ptr getelementptr inbounds nuw inrange(-16, 72) (i8, ptr @_ZTVN19OpenColorIO_v2_5dev6ArrayTIfEE, i64 16), ptr %4, align 8, !tbaa !50
  %36 = getelementptr inbounds nuw i8, ptr %0, i64 200
  %37 = load ptr, ptr %36, align 8, !tbaa !81
  %.not.i.i.i.i.i = icmp eq ptr %37, null
  br i1 %.not.i.i.i.i.i, label %.body, label %38

38:                                               ; preds = %34
  %39 = getelementptr inbounds nuw i8, ptr %0, i64 216
  %40 = load ptr, ptr %39, align 8, !tbaa !95
  %41 = ptrtoint ptr %40 to i64
  %42 = ptrtoint ptr %37 to i64
  %43 = sub i64 %41, %42
  tail call void @_ZdlPvm(ptr noundef nonnull %37, i64 noundef %43) #31
  br label %.body

_ZN19OpenColorIO_v2_5dev11Lut3DOpData10Lut3DArrayC2Em.exit: ; preds = %19, %.noexc.i
  %44 = getelementptr inbounds nuw i8, ptr %0, i64 224
  store i32 0, ptr %44, align 8, !tbaa !11
  %45 = getelementptr inbounds nuw i8, ptr %0, i64 228
  store i32 0, ptr %45, align 4, !tbaa !54
  ret void

.body:                                            ; preds = %34, %38
  store ptr getelementptr inbounds nuw inrange(-16, 88) (i8, ptr @_ZTVN19OpenColorIO_v2_5dev6OpDataE, i64 16), ptr %0, align 8, !tbaa !50
  %46 = getelementptr inbounds nuw i8, ptr %0, i64 48
  tail call void @_ZN19OpenColorIO_v2_5dev18FormatMetadataImplD1Ev(ptr noundef nonnull align 8 dereferenceable(120) %46) #28
  resume { ptr, i32 } %35
}